; Function Attrs: nofree norecurse nosync nounwind memory(read, inaccessiblemem: none) uwtable
define range(i32 -2147483648, 2147483647) i32 @Gia_ManHashLookup(ptr noundef readonly captures(none) %0, ptr noundef %1, ptr noundef %2) local_unnamed_addr #0 {
  %4 = getelementptr i8, ptr %0, i64 32
  %.val = load ptr, ptr %4, align 8, !tbaa !12
  %5 = ptrtoint ptr %1 to i64
  %6 = and i64 %5, -2
  %7 = ptrtoint ptr %.val to i64
  %8 = sub i64 %6, %7
  %9 = sdiv exact i64 %8, 12
  %10 = trunc i64 %9 to i32
  %11 = trunc i64 %5 to i32
  %12 = and i32 %11, 1
  %13 = shl nsw i32 %10, 1
  %14 = or disjoint i32 %13, %12
  %15 = ptrtoint ptr %2 to i64
  %16 = and i64 %15, -2
  %17 = sub i64 %16, %7
  %18 = sdiv exact i64 %17, 12
  %19 = trunc i64 %18 to i32
  %20 = trunc i64 %15 to i32
  %21 = and i32 %20, 1
  %22 = shl nsw i32 %19, 1
  %23 = or disjoint i32 %22, %21
  %spec.select.i = tail call i32 @llvm.smin.i32(i32 %14, i32 %23)
  %spec.select14.i = tail call i32 @llvm.smax.i32(i32 %14, i32 %23)
  %24 = getelementptr i8, ptr %0, i64 100
  %.val.i.i = load i32, ptr %24, align 4, !tbaa !3
  %25 = ashr i32 %spec.select.i, 1
  %26 = mul nsw i32 %25, 7937
  %27 = ashr i32 %spec.select14.i, 1
  %28 = mul nsw i32 %27, 2971
  %29 = trunc i32 %spec.select.i to i1
  %30 = select i1 %29, i32 911, i32 0
  %31 = trunc i32 %spec.select14.i to i1
  %32 = select i1 %31, i32 353, i32 0
  %33 = add i32 %26, -2011
  %34 = add i32 %33, %30
  %35 = add i32 %34, %28
  %36 = add i32 %35, %32
  %37 = urem i32 %36, %.val.i.i
  %38 = getelementptr i8, ptr %0, i64 104
  %.val23.i.i = load ptr, ptr %38, align 8, !tbaa !10
  %39 = sext i32 %37 to i64
  %40 = getelementptr inbounds i32, ptr %.val23.i.i, i64 %39
  %41 = getelementptr inbounds nuw i8, ptr %0, i64 40
  %42 = load i32, ptr %40, align 4, !tbaa !11
  %.not30.i.i = icmp eq i32 %42, 0
  br i1 %.not30.i.i, label %Gia_ManHashLookupInt.exit, label %.lr.ph.i.i

.lr.ph.i.i:                                       ; preds = %3
  %43 = getelementptr i8, ptr %0, i64 88
  br label %44

44:                                               ; preds = %75, %.lr.ph.i.i
  %45 = phi i32 [ %42, %.lr.ph.i.i ], [ %77, %75 ]
  %46 = sext i32 %45 to i64
  %47 = getelementptr inbounds %struct.Gia_Obj_t_, ptr %.val, i64 %46
  %.val26.i.i = load i64, ptr %47, align 4
  %48 = trunc i64 %.val26.i.i to i32
  %49 = and i32 %48, 536870911
  %50 = sub nsw i32 %45, %49
  %51 = lshr i32 %48, 29
  %52 = and i32 %51, 1
  %53 = shl nsw i32 %50, 1
  %54 = or disjoint i32 %53, %52
  %55 = icmp eq i32 %54, %spec.select.i
  br i1 %55, label %56, label %75

56:                                               ; preds = %44
  %57 = lshr i64 %.val26.i.i, 32
  %58 = trunc nuw i64 %57 to i32
  %59 = and i32 %58, 536870911
  %60 = sub nsw i32 %45, %59
  %61 = lshr i64 %.val26.i.i, 61
  %62 = trunc nuw nsw i64 %61 to i32
  %63 = and i32 %62, 1
  %64 = shl nsw i32 %60, 1
  %65 = or disjoint i32 %64, %63
  %66 = icmp eq i32 %65, %spec.select14.i
  br i1 %66, label %67, label %75

67:                                               ; preds = %56
  %68 = load ptr, ptr %41, align 8, !tbaa !31
  %69 = icmp eq ptr %68, null
  br i1 %69, label %Gia_ManHashFind.exit.loopexit.i, label %Gia_ObjFaninLit2p.exit.i.i

Gia_ObjFaninLit2p.exit.i.i:                       ; preds = %67
  %70 = shl nsw i64 %46, 2
  %71 = getelementptr inbounds i8, ptr %68, i64 %70
  %72 = load i32, ptr %71, align 4, !tbaa !11
  %73 = add i32 %72, 1
  %74 = icmp ult i32 %73, 2
  br i1 %74, label %Gia_ManHashFind.exit.loopexit.i, label %75

75:                                               ; preds = %Gia_ObjFaninLit2p.exit.i.i, %56, %44
  %.val24.i.i = load ptr, ptr %43, align 8, !tbaa !10
  %76 = getelementptr inbounds i32, ptr %.val24.i.i, i64 %46
  %77 = load i32, ptr %76, align 4, !tbaa !11
  %.not.i.i = icmp eq i32 %77, 0
  br i1 %.not.i.i, label %Gia_ManHashFind.exit.loopexit.i, label %44, !llvm.loop !32

Gia_ManHashFind.exit.loopexit.i:                  ; preds = %75, %Gia_ObjFaninLit2p.exit.i.i, %67
  %78 = phi i32 [ %45, %67 ], [ %45, %Gia_ObjFaninLit2p.exit.i.i ], [ 0, %75 ]
  %79 = shl nsw i32 %78, 1
  br label %Gia_ManHashLookupInt.exit

Gia_ManHashLookupInt.exit:                        ; preds = %3, %Gia_ManHashFind.exit.loopexit.i
  %80 = phi i32 [ 0, %3 ], [ %79, %Gia_ManHashFind.exit.loopexit.i ]
  ret i32 %80
}